; Function Attrs: nounwind uwtable
define dso_local void @s_p_hashtbl_merge_override(ptr noundef captures(address_is_null) %0, ptr noundef captures(address_is_null) %1) local_unnamed_addr #0 {
  %3 = alloca %struct.s_p_values, align 8
  %4 = icmp ne ptr %0, null
  %5 = icmp ne ptr %1, null
  %or.cond = and i1 %4, %5
  br i1 %or.cond, label %.preheader, label %.loopexit42

.preheader:                                       ; preds = %2
  %6 = getelementptr inbounds nuw i8, ptr %1, i64 64
  %7 = getelementptr inbounds nuw i8, ptr %0, i64 64
  br label %8

8:                                                ; preds = %.preheader, %._crit_edge
  %indvars.iv = phi i64 [ 0, %.preheader ], [ %indvars.iv.next, %._crit_edge ]
  %9 = getelementptr inbounds nuw [173 x ptr], ptr %6, i64 0, i64 %indvars.iv
  %.02545 = load ptr, ptr %9, align 8
  %.not46 = icmp eq ptr %.02545, null
  br i1 %.not46, label %._crit_edge, label %.lr.ph

.lr.ph:                                           ; preds = %8, %.backedge
  %.02548 = phi ptr [ %.025, %.backedge ], [ %.02545, %8 ]
  %.02647 = phi ptr [ %.026.be, %.backedge ], [ %9, %8 ]
  %10 = getelementptr inbounds nuw i8, ptr %.02548, i64 16
  %11 = load i32, ptr %10, align 8
  %12 = icmp eq i32 %11, 0
  br i1 %12, label %13, label %15

13:                                               ; preds = %.lr.ph
  %14 = getelementptr inbounds nuw i8, ptr %.02548, i64 48
  br label %.backedge

.backedge:                                        ; preds = %_conf_hashtbl_lookup.exit, %_conf_hashtbl_insert.exit, %13
  %.026.be = phi ptr [ %14, %13 ], [ %37, %_conf_hashtbl_lookup.exit ], [ %.02647, %_conf_hashtbl_insert.exit ]
  %.025 = load ptr, ptr %.026.be, align 8
  %.not = icmp eq ptr %.025, null
  br i1 %.not, label %._crit_edge, label %.lr.ph, !llvm.loop !41

15:                                               ; preds = %.lr.ph
  %16 = load ptr, ptr %.02548, align 8
  %17 = load i8, ptr %16, align 1
  %.not8.i.i = icmp eq i8 %17, 0
  br i1 %.not8.i.i, label %_conf_hashtbl_index.exit.i, label %.lr.ph.i.i

.lr.ph.i.i:                                       ; preds = %15
  %18 = tail call ptr @__ctype_tolower_loc() #15
  %19 = load ptr, ptr %18, align 8
  br label %20

20:                                               ; preds = %20, %.lr.ph.i.i
  %21 = phi i8 [ %17, %.lr.ph.i.i ], [ %28, %20 ]
  %.010.i.i = phi ptr [ %16, %.lr.ph.i.i ], [ %27, %20 ]
  %.069.i.i = phi i32 [ 0, %.lr.ph.i.i ], [ %26, %20 ]
  %22 = sext i8 %21 to i64
  %23 = getelementptr inbounds i32, ptr %19, i64 %22
  %24 = load i32, ptr %23, align 4
  %25 = mul i32 %.069.i.i, 31
  %26 = add i32 %24, %25
  %27 = getelementptr inbounds nuw i8, ptr %.010.i.i, i64 1
  %28 = load i8, ptr %27, align 1
  %.not.i.i = icmp eq i8 %28, 0
  br i1 %.not.i.i, label %._crit_edge.loopexit.i.i, label %20, !llvm.loop !28

._crit_edge.loopexit.i.i:                         ; preds = %20
  %29 = urem i32 %26, 173
  %30 = zext nneg i32 %29 to i64
  br label %_conf_hashtbl_index.exit.i

_conf_hashtbl_index.exit.i:                       ; preds = %._crit_edge.loopexit.i.i, %15
  %.06.lcssa.i.i = phi i64 [ 0, %15 ], [ %30, %._crit_edge.loopexit.i.i ]
  %31 = getelementptr inbounds nuw [173 x ptr], ptr %7, i64 0, i64 %.06.lcssa.i.i
  %.012.i = load ptr, ptr %31, align 8
  %.not1113.i = icmp eq ptr %.012.i, null
  br i1 %.not1113.i, label %.loopexit, label %.lr.ph.i

.lr.ph.i:                                         ; preds = %_conf_hashtbl_index.exit.i, %35
  %.014.i = phi ptr [ %.0.i, %35 ], [ %.012.i, %_conf_hashtbl_index.exit.i ]
  %32 = load ptr, ptr %.014.i, align 8
  %33 = tail call i32 @xstrcasecmp(ptr noundef %32, ptr noundef nonnull %16) #13
  %34 = icmp eq i32 %33, 0
  br i1 %34, label %_conf_hashtbl_lookup.exit, label %35

35:                                               ; preds = %.lr.ph.i
  %36 = getelementptr inbounds nuw i8, ptr %.014.i, i64 48
  %.0.i = load ptr, ptr %36, align 8
  %.not11.i = icmp eq ptr %.0.i, null
  br i1 %.not11.i, label %.loopexit, label %.lr.ph.i, !llvm.loop !29

_conf_hashtbl_lookup.exit:                        ; preds = %.lr.ph.i
  call void @llvm.lifetime.start.p0(i64 56, ptr nonnull %3)
  %37 = getelementptr inbounds nuw i8, ptr %.02548, i64 48
  %38 = load ptr, ptr %37, align 8
  %39 = getelementptr inbounds nuw i8, ptr %.014.i, i64 48
  %40 = load ptr, ptr %39, align 8
  call void @llvm.memcpy.p0.p0.i64(ptr noundef nonnull align 8 dereferenceable(56) %3, ptr noundef nonnull align 8 dereferenceable(56) %.02548, i64 56, i1 false)
  tail call void @llvm.memcpy.p0.p0.i64(ptr noundef nonnull align 8 dereferenceable(56) %.02548, ptr noundef nonnull align 8 dereferenceable(56) %.014.i, i64 48, i1 false)
  call void @llvm.memcpy.p0.p0.i64(ptr noundef nonnull align 8 dereferenceable(56) %.014.i, ptr noundef nonnull align 8 dereferenceable(56) %3, i64 48, i1 false)
  store ptr %38, ptr %37, align 8
  store ptr %40, ptr %39, align 8
  call void @llvm.lifetime.end.p0(i64 56, ptr nonnull %3)
  br label %.backedge

.loopexit:                                        ; preds = %35, %_conf_hashtbl_index.exit.i
  %41 = getelementptr inbounds nuw i8, ptr %.02548, i64 48
  %42 = load ptr, ptr %41, align 8
  store ptr %42, ptr %.02647, align 8
  store ptr null, ptr %41, align 8
  %43 = load ptr, ptr %.02548, align 8
  %44 = load i8, ptr %43, align 1
  %.not8.i.i32 = icmp eq i8 %44, 0
  br i1 %.not8.i.i32, label %_conf_hashtbl_insert.exit, label %.lr.ph.i.i33

.lr.ph.i.i33:                                     ; preds = %.loopexit
  %45 = tail call ptr @__ctype_tolower_loc() #15
  %46 = load ptr, ptr %45, align 8
  br label %47

47:                                               ; preds = %47, %.lr.ph.i.i33
  %48 = phi i8 [ %44, %.lr.ph.i.i33 ], [ %55, %47 ]
  %.010.i.i34 = phi ptr [ %43, %.lr.ph.i.i33 ], [ %54, %47 ]
  %.069.i.i35 = phi i32 [ 0, %.lr.ph.i.i33 ], [ %53, %47 ]
  %49 = sext i8 %48 to i64
  %50 = getelementptr inbounds i32, ptr %46, i64 %49
  %51 = load i32, ptr %50, align 4
  %52 = mul i32 %.069.i.i35, 31
  %53 = add i32 %51, %52
  %54 = getelementptr inbounds nuw i8, ptr %.010.i.i34, i64 1
  %55 = load i8, ptr %54, align 1
  %.not.i.i36 = icmp eq i8 %55, 0
  br i1 %.not.i.i36, label %._crit_edge.loopexit.i.i37, label %47, !llvm.loop !28

._crit_edge.loopexit.i.i37:                       ; preds = %47
  %56 = urem i32 %53, 173
  %57 = zext nneg i32 %56 to i64
  br label %_conf_hashtbl_insert.exit

_conf_hashtbl_insert.exit:                        ; preds = %.loopexit, %._crit_edge.loopexit.i.i37
  %.06.lcssa.i.i39 = phi i64 [ 0, %.loopexit ], [ %57, %._crit_edge.loopexit.i.i37 ]
  %58 = getelementptr inbounds nuw [173 x ptr], ptr %7, i64 0, i64 %.06.lcssa.i.i39
  %59 = load ptr, ptr %58, align 8
  store ptr %59, ptr %41, align 8
  store ptr %.02548, ptr %58, align 8
  br label %.backedge

._crit_edge:                                      ; preds = %.backedge, %8
  %indvars.iv.next = add nuw nsw i64 %indvars.iv, 1
  %exitcond.not = icmp eq i64 %indvars.iv.next, 173
  br i1 %exitcond.not, label %.loopexit42, label %8, !llvm.loop !42

.loopexit42:                                      ; preds = %._crit_edge, %2
  ret void
}